; Function Attrs: mustprogress uwtable
define void @_ZN8proxygen24PersistentQuicTokenCache8getTokenERKNSt7__cxx1112basic_stringIcSt11char_traitsIcESaIcEEE(ptr noalias sret(%"class.folly::Optional") align 8 %agg.result, ptr nocapture noundef nonnull readonly align 8 dereferenceable(32) %this, ptr noundef nonnull align 8 dereferenceable(32) %hostname) unnamed_addr #0 align 2 {
entry:
  %cache_.i = getelementptr inbounds i8, ptr %this, i64 16
  %0 = load ptr, ptr %cache_.i, align 8, !noalias !7
  %vtable.i = load ptr, ptr %0, align 8, !noalias !7
  %vfn.i = getelementptr inbounds i8, ptr %vtable.i, i64 16
  %1 = load ptr, ptr %vfn.i, align 8, !noalias !7
  tail call void %1(ptr sret(%"class.folly::Optional") align 8 %agg.result, ptr noundef nonnull align 8 dereferenceable(397) %0, ptr noundef nonnull align 8 dereferenceable(32) %hostname)
  ret void
}